target datalayout = "e-m:e-p270:32:32-p271:32:32-p272:64:64-i64:64-i128:128-f80:128-n8:16:32:64-S128"
target triple = "x86_64-pc-linux-gnu"

%struct.ShellState = type { ptr, i8, i8, i8, i8, i8, i8, i8, i8, i8, i8, i8, i8, i8, %struct.ColModeOpts, i32, i32, i32, i32, i32, i32, i32, ptr, ptr, ptr, i32, i32, i32, i32, i32, i32, i32, i32, i32, i32, i32, i32, i32, i64, ptr, ptr, [30 x i8], [20 x i8], [20 x i8], [20 x i8], [20 x i8], ptr, ptr, i32, [20 x i8], [4096 x i8], ptr, ptr, [5 x %struct.AuxDb], ptr, ptr, i32, i32, ptr, %struct.EQPGraph, %struct.ExpertInfo }
%struct.ColModeOpts = type { i32, i8, i8 }
%struct.AuxDb = type { ptr, ptr, ptr }
%struct.EQPGraph = type { ptr, ptr, [100 x i8] }
%struct.ExpertInfo = type { ptr, i32 }

@.str.1696 = private unnamed_addr constant [100 x i8] c"CREATE TABLE IF NOT EXISTS temp.sqlite_parameters(\0A  key TEXT PRIMARY KEY,\0A  value\0A) WITHOUT ROWID;\00", align 1

; Function Attrs: nounwind uwtable
define internal void @bind_table_init(ptr noundef %0) #0 {
  %2 = alloca ptr, align 8
  %3 = alloca i32, align 4
  %4 = alloca i32, align 4
  store ptr %0, ptr %2, align 8, !tbaa !373
  call void @llvm.lifetime.start.p0(i64 4, ptr %3) #14
  store i32 0, ptr %3, align 4, !tbaa !3
  call void @llvm.lifetime.start.p0(i64 4, ptr %4) #14
  store i32 0, ptr %4, align 4, !tbaa !3
  %5 = load ptr, ptr %2, align 8, !tbaa !373
  %6 = getelementptr inbounds nuw %struct.ShellState, ptr %5, i32 0, i32 0
  %7 = load ptr, ptr %6, align 8, !tbaa !367
  %8 = call i32 (ptr, i32, ...) @sqlite3_db_config(ptr noundef %7, i32 noundef 1010, i32 noundef -1, ptr noundef %4)
  %9 = load ptr, ptr %2, align 8, !tbaa !373
  %10 = getelementptr inbounds nuw %struct.ShellState, ptr %9, i32 0, i32 0
  %11 = load ptr, ptr %10, align 8, !tbaa !367
  %12 = call i32 (ptr, i32, ...) @sqlite3_db_config(ptr noundef %11, i32 noundef 1010, i32 noundef 0, i32 noundef 0)
  %13 = load ptr, ptr %2, align 8, !tbaa !373
  %14 = getelementptr inbounds nuw %struct.ShellState, ptr %13, i32 0, i32 0
  %15 = load ptr, ptr %14, align 8, !tbaa !367
  %16 = call i32 (ptr, i32, ...) @sqlite3_db_config(ptr noundef %15, i32 noundef 1011, i32 noundef -1, ptr noundef %3)
  %17 = load ptr, ptr %2, align 8, !tbaa !373
  %18 = getelementptr inbounds nuw %struct.ShellState, ptr %17, i32 0, i32 0
  %19 = load ptr, ptr %18, align 8, !tbaa !367
  %20 = call i32 (ptr, i32, ...) @sqlite3_db_config(ptr noundef %19, i32 noundef 1011, i32 noundef 1, i32 noundef 0)
  %21 = load ptr, ptr %2, align 8, !tbaa !373
  %22 = getelementptr inbounds nuw %struct.ShellState, ptr %21, i32 0, i32 0
  %23 = load ptr, ptr %22, align 8, !tbaa !367
  %24 = call i32 @sqlite3_exec(ptr noundef %23, ptr noundef @.str.1696, ptr noundef null, ptr noundef null, ptr noundef null)
  %25 = load ptr, ptr %2, align 8, !tbaa !373
  %26 = getelementptr inbounds nuw %struct.ShellState, ptr %25, i32 0, i32 0
  %27 = load ptr, ptr %26, align 8, !tbaa !367
  %28 = load i32, ptr %3, align 4, !tbaa !3
  %29 = call i32 (ptr, i32, ...) @sqlite3_db_config(ptr noundef %27, i32 noundef 1011, i32 noundef %28, i32 noundef 0)
  %30 = load ptr, ptr %2, align 8, !tbaa !373
  %31 = getelementptr inbounds nuw %struct.ShellState, ptr %30, i32 0, i32 0
  %32 = load ptr, ptr %31, align 8, !tbaa !367
  %33 = load i32, ptr %4, align 4, !tbaa !3
  %34 = call i32 (ptr, i32, ...) @sqlite3_db_config(ptr noundef %32, i32 noundef 1010, i32 noundef %33, i32 noundef 0)
  call void @llvm.lifetime.end.p0(i64 4, ptr %4) #14
  call void @llvm.lifetime.end.p0(i64 4, ptr %3) #14
  ret void
}