; Function Attrs: nounwind uwtable
define internal fastcc void @bind_table_init(ptr noundef nonnull readonly captures(none) %0) unnamed_addr #2 {
  %2 = alloca i32, align 4
  %3 = alloca i32, align 4
  call void @llvm.lifetime.start.p0(i64 4, ptr nonnull %2) #43
  store i32 0, ptr %2, align 4, !tbaa !36
  call void @llvm.lifetime.start.p0(i64 4, ptr nonnull %3) #43
  store i32 0, ptr %3, align 4, !tbaa !36
  %4 = load ptr, ptr %0, align 8, !tbaa !478
  %5 = call i32 (ptr, i32, ...) @sqlite3_db_config(ptr noundef %4, i32 noundef 1010, i32 noundef -1, ptr noundef nonnull %3) #43
  %6 = load ptr, ptr %0, align 8, !tbaa !478
  %7 = call i32 (ptr, i32, ...) @sqlite3_db_config(ptr noundef %6, i32 noundef 1010, i32 noundef 0, i32 noundef 0) #43
  %8 = load ptr, ptr %0, align 8, !tbaa !478
  %9 = call i32 (ptr, i32, ...) @sqlite3_db_config(ptr noundef %8, i32 noundef 1011, i32 noundef -1, ptr noundef nonnull %2) #43
  %10 = load ptr, ptr %0, align 8, !tbaa !478
  %11 = call i32 (ptr, i32, ...) @sqlite3_db_config(ptr noundef %10, i32 noundef 1011, i32 noundef 1, i32 noundef 0) #43
  %12 = load ptr, ptr %0, align 8, !tbaa !478
  %13 = call i32 @sqlite3_exec(ptr noundef %12, ptr noundef nonnull @.str.1696, ptr noundef null, ptr noundef null, ptr noundef null) #43
  %14 = load ptr, ptr %0, align 8, !tbaa !478
  %15 = load i32, ptr %2, align 4, !tbaa !36
  %16 = call i32 (ptr, i32, ...) @sqlite3_db_config(ptr noundef %14, i32 noundef 1011, i32 noundef %15, i32 noundef 0) #43
  %17 = load ptr, ptr %0, align 8, !tbaa !478
  %18 = load i32, ptr %3, align 4, !tbaa !36
  %19 = call i32 (ptr, i32, ...) @sqlite3_db_config(ptr noundef %17, i32 noundef 1010, i32 noundef %18, i32 noundef 0) #43
  call void @llvm.lifetime.end.p0(i64 4, ptr nonnull %3) #43
  call void @llvm.lifetime.end.p0(i64 4, ptr nonnull %2) #43
  ret void
}